target datalayout = "e-m:e-p270:32:32-p271:32:32-p272:64:64-i64:64-i128:128-f80:128-n8:16:32:64-S128"
target triple = "x86_64-pc-linux-gnu"

%struct.GtkApi = type { i32, ptr, ptr, ptr, ptr, ptr, ptr, ptr, ptr, ptr, ptr, ptr, ptr, ptr, ptr, ptr, ptr, ptr, ptr, ptr, ptr, ptr, ptr, ptr, ptr, ptr, ptr, ptr, ptr, ptr, ptr, ptr, ptr, ptr, ptr, ptr, ptr, ptr, ptr, ptr, ptr, ptr, ptr, ptr, ptr, ptr, ptr, ptr, ptr, ptr, ptr, ptr, ptr, ptr, ptr, ptr, ptr, ptr, ptr, ptr, ptr, ptr, ptr, ptr, ptr, ptr, ptr, ptr, ptr, ptr, ptr, ptr, ptr, ptr, ptr, ptr, ptr, ptr, ptr, ptr, ptr, ptr, ptr, ptr, ptr, ptr, ptr, ptr, ptr, ptr, ptr, ptr, ptr, ptr, ptr, ptr, ptr, ptr, ptr, ptr, ptr, ptr, ptr, ptr, ptr }

@entry = hidden global ptr null, align 8
@gtk = external global ptr, align 8
@fp_unity_launcher_entry_get_quicklist = internal global ptr null, align 8
@fp_unity_launcher_entry_set_quicklist = internal global ptr null, align 8
@fp_unity_launcher_entry_set_progress = internal global ptr null, align 8
@fp_unity_launcher_entry_set_progress_visible = internal global ptr null, align 8

; Function Attrs: nounwind uwtable
define void @Java_sun_awt_X11_XTaskbarPeer_updateProgress(ptr noundef %0, ptr noundef %1, double noundef %2, i8 noundef zeroext %3) #0 {
  %5 = alloca ptr, align 8
  %6 = alloca ptr, align 8
  %7 = alloca double, align 8
  %8 = alloca i8, align 1
  %9 = alloca ptr, align 8
  store ptr %0, ptr %5, align 8
  store ptr %1, ptr %6, align 8
  store double %2, ptr %7, align 8
  store i8 %3, ptr %8, align 1
  %10 = load ptr, ptr @gtk, align 8
  %11 = getelementptr inbounds %struct.GtkApi, ptr %10, i32 0, i32 31
  %12 = load ptr, ptr %11, align 8
  call void %12()
  %13 = load ptr, ptr @fp_unity_launcher_entry_set_progress, align 8
  %14 = load ptr, ptr @entry, align 8
  %15 = load double, ptr %7, align 8
  call void %13(ptr noundef %14, double noundef %15)
  %16 = load ptr, ptr @fp_unity_launcher_entry_set_progress_visible, align 8
  %17 = load ptr, ptr @entry, align 8
  %18 = load i8, ptr %8, align 1
  %19 = zext i8 %18 to i32
  call void %16(ptr noundef %17, i32 noundef %19)
  %20 = load ptr, ptr @fp_unity_launcher_entry_get_quicklist, align 8
  %21 = load ptr, ptr @entry, align 8
  %22 = call ptr %20(ptr noundef %21)
  store ptr %22, ptr %9, align 8
  %23 = icmp ne ptr %22, null
  br i1 %23, label %24, label %28

24:                                               ; preds = %4
  %25 = load ptr, ptr @fp_unity_launcher_entry_set_quicklist, align 8
  %26 = load ptr, ptr @entry, align 8
  %27 = load ptr, ptr %9, align 8
  call void %25(ptr noundef %26, ptr noundef %27)
  br label %28

28:                                               ; preds = %24, %4
  %29 = load ptr, ptr @gtk, align 8
  %30 = getelementptr inbounds %struct.GtkApi, ptr %29, i32 0, i32 32
  %31 = load ptr, ptr %30, align 8
  call void %31()
  ret void
}