; Function Attrs: nounwind uwtable
define void @Java_sun_awt_X11_XTaskbarPeer_updateProgress(ptr nocapture noundef readnone %0, ptr nocapture noundef readnone %1, double noundef %2, i8 noundef zeroext %3) local_unnamed_addr #0 {
  %5 = load ptr, ptr @gtk, align 8
  %6 = getelementptr inbounds i8, ptr %5, i64 248
  %7 = load ptr, ptr %6, align 8
  tail call void %7() #5
  %8 = load ptr, ptr @fp_unity_launcher_entry_set_progress, align 8
  %9 = load ptr, ptr @entry, align 8
  tail call void %8(ptr noundef %9, double noundef %2) #5
  %10 = load ptr, ptr @fp_unity_launcher_entry_set_progress_visible, align 8
  %11 = load ptr, ptr @entry, align 8
  %12 = zext i8 %3 to i32
  tail call void %10(ptr noundef %11, i32 noundef %12) #5
  %13 = load ptr, ptr @fp_unity_launcher_entry_get_quicklist, align 8
  %14 = load ptr, ptr @entry, align 8
  %15 = tail call ptr %13(ptr noundef %14) #5
  %.not = icmp eq ptr %15, null
  br i1 %.not, label %19, label %16

16:                                               ; preds = %4
  %17 = load ptr, ptr @fp_unity_launcher_entry_set_quicklist, align 8
  %18 = load ptr, ptr @entry, align 8
  tail call void %17(ptr noundef %18, ptr noundef nonnull %15) #5
  br label %19

19:                                               ; preds = %16, %4
  %20 = load ptr, ptr @gtk, align 8
  %21 = getelementptr inbounds i8, ptr %20, i64 256
  %22 = load ptr, ptr %21, align 8
  tail call void %22() #5
  ret void
}